target datalayout = "e-m:e-p270:32:32-p271:32:32-p272:64:64-i64:64-i128:128-f80:128-n8:16:32:64-S128"
target triple = "x86_64-pc-linux-gnu"

%"class.duckdb::ByteStreamSplitDecoder" = type { ptr, ptr, %"class.duckdb::unique_ptr" }
%"class.duckdb::unique_ptr" = type { %"class.std::unique_ptr" }
%"class.std::unique_ptr" = type { %"struct.std::__uniq_ptr_data" }
%"struct.std::__uniq_ptr_data" = type { %"class.std::__uniq_ptr_impl" }
%"class.std::__uniq_ptr_impl" = type { %"class.std::tuple" }
%"class.std::tuple" = type { %"struct.std::_Tuple_impl" }
%"struct.std::_Tuple_impl" = type { %"struct.std::_Head_base.1" }
%"struct.std::_Head_base.1" = type { ptr }
%"class.duckdb::ColumnReader" = type { ptr, ptr, ptr, i64, i8, ptr, ptr, i64, i64, i64, %"class.duckdb::shared_ptr", %"class.duckdb::ResizeableBuffer", i32, %"class.duckdb::unique_ptr.2", %"class.duckdb::unique_ptr.2", %"class.duckdb::DictionaryDecoder", %"class.duckdb::DeltaBinaryPackedDecoder", %"class.duckdb::RLEDecoder", %"class.duckdb::DeltaLengthByteArrayDecoder", %"class.duckdb::DeltaByteArrayDecoder", %"class.duckdb::ByteStreamSplitDecoder", [2 x %"class.duckdb::ResizeableBuffer"] }
%"class.duckdb::shared_ptr" = type { %"class.std::shared_ptr" }
%"class.std::shared_ptr" = type { %"class.std::__shared_ptr" }
%"class.std::__shared_ptr" = type { ptr, %"class.std::__shared_count" }
%"class.std::__shared_count" = type { ptr }
%"class.duckdb::ResizeableBuffer" = type { %"class.duckdb::ByteBuffer", %"class.duckdb::AllocatedData", i64 }
%"class.duckdb::ByteBuffer" = type { ptr, i64 }
%"class.duckdb::AllocatedData" = type { %"class.duckdb::optional_ptr", ptr, i64 }
%"class.duckdb::optional_ptr" = type { ptr }
%"class.duckdb::unique_ptr.2" = type { %"class.std::unique_ptr.3" }
%"class.std::unique_ptr.3" = type { %"struct.std::__uniq_ptr_data.4" }
%"struct.std::__uniq_ptr_data.4" = type { %"class.std::__uniq_ptr_impl.5" }
%"class.std::__uniq_ptr_impl.5" = type { %"class.std::tuple.6" }
%"class.std::tuple.6" = type { %"struct.std::_Tuple_impl.7" }
%"struct.std::_Tuple_impl.7" = type { %"struct.std::_Head_base.10" }
%"struct.std::_Head_base.10" = type { ptr }
%"class.duckdb::DictionaryDecoder" = type { ptr, ptr, %"class.duckdb::unique_ptr.2", %"struct.duckdb::SelectionVector", %"struct.duckdb::SelectionVector", i64, %"class.duckdb::unique_ptr.15", %"class.duckdb::unique_ptr.24", i64, i8, %"class.std::__cxx11::basic_string" }
%"struct.duckdb::SelectionVector" = type { ptr, %"class.duckdb::shared_ptr.11" }
%"class.duckdb::shared_ptr.11" = type { %"class.std::shared_ptr.12" }
%"class.std::shared_ptr.12" = type { %"class.std::__shared_ptr.13" }
%"class.std::__shared_ptr.13" = type { ptr, %"class.std::__shared_count" }
%"class.duckdb::unique_ptr.15" = type { %"class.std::unique_ptr.16" }
%"class.std::unique_ptr.16" = type { %"struct.std::__uniq_ptr_data.17" }
%"struct.std::__uniq_ptr_data.17" = type { %"class.std::__uniq_ptr_impl.18" }
%"class.std::__uniq_ptr_impl.18" = type { %"class.std::tuple.19" }
%"class.std::tuple.19" = type { %"struct.std::_Tuple_impl.20" }
%"struct.std::_Tuple_impl.20" = type { %"struct.std::_Head_base.23" }
%"struct.std::_Head_base.23" = type { ptr }
%"class.duckdb::unique_ptr.24" = type { %"class.std::unique_ptr.25" }
%"class.std::unique_ptr.25" = type { %"struct.std::__uniq_ptr_data.26" }
%"struct.std::__uniq_ptr_data.26" = type { %"class.std::__uniq_ptr_impl.27" }
%"class.std::__uniq_ptr_impl.27" = type { %"class.std::tuple.28" }
%"class.std::tuple.28" = type { %"struct.std::_Tuple_impl.29" }
%"struct.std::_Tuple_impl.29" = type { %"struct.std::_Head_base.32" }
%"struct.std::_Head_base.32" = type { ptr }
%"class.std::__cxx11::basic_string" = type { %"struct.std::__cxx11::basic_string<char>::_Alloc_hider", i64, %union.anon }
%"struct.std::__cxx11::basic_string<char>::_Alloc_hider" = type { ptr }
%union.anon = type { i64, [8 x i8] }
%"class.duckdb::DeltaBinaryPackedDecoder" = type { ptr, ptr, %"class.duckdb::unique_ptr.33" }
%"class.duckdb::unique_ptr.33" = type { %"class.std::unique_ptr.34" }
%"class.std::unique_ptr.34" = type { %"struct.std::__uniq_ptr_data.35" }
%"struct.std::__uniq_ptr_data.35" = type { %"class.std::__uniq_ptr_impl.36" }
%"class.std::__uniq_ptr_impl.36" = type { %"class.std::tuple.37" }
%"class.std::tuple.37" = type { %"struct.std::_Tuple_impl.38" }
%"struct.std::_Tuple_impl.38" = type { %"struct.std::_Head_base.41" }
%"struct.std::_Head_base.41" = type { ptr }
%"class.duckdb::RLEDecoder" = type { ptr, ptr, %"class.duckdb::unique_ptr.2" }
%"class.duckdb::DeltaLengthByteArrayDecoder" = type { ptr, ptr, i64, i64 }
%"class.duckdb::DeltaByteArrayDecoder" = type { ptr, %"class.duckdb::unique_ptr.15", i64, i64 }
%"class.duckdb::optional_idx" = type { i64 }
%"struct.duckdb::ParquetColumnSchema" = type { i32, %"class.std::__cxx11::basic_string", %"struct.duckdb::LogicalType", i64, i64, i64, i64, %"class.duckdb::optional_idx", i32, i32, i32, i32, %"class.duckdb::vector.160" }
%"struct.duckdb::LogicalType" = type { i8, i8, %"class.duckdb::shared_ptr.156" }
%"class.duckdb::shared_ptr.156" = type { %"class.std::shared_ptr.157" }
%"class.std::shared_ptr.157" = type { %"class.std::__shared_ptr.158" }
%"class.std::__shared_ptr.158" = type { ptr, %"class.std::__shared_count" }
%"class.duckdb::vector.160" = type { %"class.std::vector.161" }
%"class.std::vector.161" = type { %"struct.std::_Vector_base.162" }
%"struct.std::_Vector_base.162" = type { %"struct.std::_Vector_base<duckdb::ParquetColumnSchema, std::allocator<duckdb::ParquetColumnSchema>>::_Vector_impl" }
%"struct.std::_Vector_base<duckdb::ParquetColumnSchema, std::allocator<duckdb::ParquetColumnSchema>>::_Vector_impl" = type { %"struct.std::_Vector_base<duckdb::ParquetColumnSchema, std::allocator<duckdb::ParquetColumnSchema>>::_Vector_impl_data" }
%"struct.std::_Vector_base<duckdb::ParquetColumnSchema, std::allocator<duckdb::ParquetColumnSchema>>::_Vector_impl_data" = type { ptr, ptr, ptr }
%"class.duckdb::RleBpDecoder" = type <{ %"class.duckdb::ByteBuffer", i32, [4 x i8], i64, i32, i32, i8, [7 x i8], i64, i8, [7 x i8] }>

; Function Attrs: mustprogress nounwind uwtable
define linkonce_odr noundef zeroext i1 @_ZNK6duckdb10ByteBuffer15check_availableEm(ptr noundef nonnull align 8 dereferenceable(16) %0, i64 noundef %1) #4 comdat align 2 {
  %3 = alloca ptr, align 8
  %4 = alloca i64, align 8
  store ptr %0, ptr %3, align 8, !tbaa !41
  store i64 %1, ptr %4, align 8, !tbaa !30
  %5 = load ptr, ptr %3, align 8
  %6 = load i64, ptr %4, align 8, !tbaa !30
  %7 = getelementptr inbounds nuw %"class.duckdb::ByteBuffer", ptr %5, i32 0, i32 1
  %8 = load i64, ptr %7, align 8, !tbaa !26
  %9 = icmp ule i64 %6, %8
  ret i1 %9
}

; Function Attrs: mustprogress uwtable
define linkonce_odr void @_ZN6duckdb12RleBpDecoder10NextCountsEv(ptr noundef nonnull align 8 dereferenceable(57) %0) #6 comdat align 2 {
  %2 = alloca ptr, align 8
  store ptr %0, ptr %2, align 8, !tbaa !316
  %3 = load ptr, ptr %2, align 8
  %4 = getelementptr inbounds nuw %"class.duckdb::RleBpDecoder", ptr %3, i32 0, i32 0
  %5 = getelementptr inbounds nuw %"class.duckdb::RleBpDecoder", ptr %3, i32 0, i32 6
  %6 = load i8, ptr %5, align 8, !tbaa !618
  %7 = zext i8 %6 to i64
  %8 = add i64 %7, 4
  %9 = add i64 %8, 2
  %10 = call noundef zeroext i1 @_ZNK6duckdb10ByteBuffer15check_availableEm(ptr noundef nonnull align 8 dereferenceable(16) %4, i64 noundef %9)
  br i1 %10, label %11, label %12

11:                                               ; preds = %1
  call void @_ZN6duckdb12RleBpDecoder19NextCountsTemplatedILb0EEEvv(ptr noundef nonnull align 8 dereferenceable(57) %3)
  br label %13

12:                                               ; preds = %1
  call void @_ZN6duckdb12RleBpDecoder19NextCountsTemplatedILb1EEEvv(ptr noundef nonnull align 8 dereferenceable(57) %3)
  br label %13

13:                                               ; preds = %12, %11
  ret void
}

; Function Attrs: mustprogress nounwind uwtable
define linkonce_odr noundef i32 @_ZN6duckdb8MinValueIjEET_S1_S1_(i32 noundef %0, i32 noundef %1) #4 comdat {
  %3 = alloca i32, align 4
  %4 = alloca i32, align 4
  store i32 %0, ptr %3, align 4, !tbaa !223
  store i32 %1, ptr %4, align 4, !tbaa !223
  %5 = load i32, ptr %3, align 4, !tbaa !223
  %6 = load i32, ptr %4, align 4, !tbaa !223
  %7 = icmp ult i32 %5, %6
  br i1 %7, label %8, label %10

8:                                                ; preds = %2
  %9 = load i32, ptr %3, align 4, !tbaa !223
  br label %12

10:                                               ; preds = %2
  %11 = load i32, ptr %4, align 4, !tbaa !223
  br label %12

12:                                               ; preds = %10, %8
  %13 = phi i32 [ %9, %8 ], [ %11, %10 ]
  ret i32 %13
}

; Function Attrs: inlinehint mustprogress nounwind uwtable
define linkonce_odr noundef i64 @_ZNK6duckdb12ColumnReader9MaxDefineEv(ptr noundef nonnull align 8 dereferenceable(544) %0) #5 comdat align 2 {
  %2 = alloca ptr, align 8
  store ptr %0, ptr %2, align 8, !tbaa !8
  %3 = load ptr, ptr %2, align 8
  %4 = getelementptr inbounds nuw %"class.duckdb::ColumnReader", ptr %3, i32 0, i32 1
  %5 = load ptr, ptr %4, align 8, !tbaa !222
  %6 = getelementptr inbounds nuw %"struct.duckdb::ParquetColumnSchema", ptr %5, i32 0, i32 3
  %7 = load i64, ptr %6, align 8, !tbaa !277
  ret i64 %7
}

; Function Attrs: mustprogress uwtable
define linkonce_odr void @_ZN6duckdb12RleBpDecoder4SkipEj(ptr noundef nonnull align 8 dereferenceable(57) %0, i32 noundef %1) #6 comdat align 2 {
  %3 = alloca ptr, align 8
  %4 = alloca i32, align 4
  %5 = alloca i32, align 4
  %6 = alloca i32, align 4
  %7 = alloca i32, align 4
  store ptr %0, ptr %3, align 8, !tbaa !316
  store i32 %1, ptr %4, align 4, !tbaa !223
  %8 = load ptr, ptr %3, align 8
  call void @llvm.lifetime.start.p0(i64 4, ptr %5) #3
  store i32 0, ptr %5, align 4, !tbaa !223
  br label %9

9:                                                ; preds = %58, %2
  %10 = load i32, ptr %5, align 4, !tbaa !223
  %11 = load i32, ptr %4, align 4, !tbaa !223
  %12 = icmp ult i32 %10, %11
  br i1 %12, label %13, label %59

13:                                               ; preds = %9
  %14 = getelementptr inbounds nuw %"class.duckdb::RleBpDecoder", ptr %8, i32 0, i32 4
  %15 = load i32, ptr %14, align 8, !tbaa !343
  %16 = icmp ugt i32 %15, 0
  br i1 %16, label %17, label %31

17:                                               ; preds = %13
  call void @llvm.lifetime.start.p0(i64 4, ptr %6) #3
  %18 = load i32, ptr %4, align 4, !tbaa !223
  %19 = load i32, ptr %5, align 4, !tbaa !223
  %20 = sub i32 %18, %19
  %21 = getelementptr inbounds nuw %"class.duckdb::RleBpDecoder", ptr %8, i32 0, i32 4
  %22 = load i32, ptr %21, align 8, !tbaa !343
  %23 = call noundef i32 @_ZN6duckdb8MinValueIjEET_S1_S1_(i32 noundef %20, i32 noundef %22)
  store i32 %23, ptr %6, align 4, !tbaa !223
  %24 = load i32, ptr %6, align 4, !tbaa !223
  %25 = getelementptr inbounds nuw %"class.duckdb::RleBpDecoder", ptr %8, i32 0, i32 4
  %26 = load i32, ptr %25, align 8, !tbaa !343
  %27 = sub i32 %26, %24
  store i32 %27, ptr %25, align 8, !tbaa !343
  %28 = load i32, ptr %6, align 4, !tbaa !223
  %29 = load i32, ptr %5, align 4, !tbaa !223
  %30 = add i32 %29, %28
  store i32 %30, ptr %5, align 4, !tbaa !223
  call void @llvm.lifetime.end.p0(i64 4, ptr %6) #3
  br label %58

31:                                               ; preds = %13
  %32 = getelementptr inbounds nuw %"class.duckdb::RleBpDecoder", ptr %8, i32 0, i32 5
  %33 = load i32, ptr %32, align 4, !tbaa !346
  %34 = icmp ugt i32 %33, 0
  br i1 %34, label %35, label %56

35:                                               ; preds = %31
  call void @llvm.lifetime.start.p0(i64 4, ptr %7) #3
  %36 = load i32, ptr %4, align 4, !tbaa !223
  %37 = load i32, ptr %5, align 4, !tbaa !223
  %38 = sub i32 %36, %37
  %39 = getelementptr inbounds nuw %"class.duckdb::RleBpDecoder", ptr %8, i32 0, i32 5
  %40 = load i32, ptr %39, align 4, !tbaa !346
  %41 = call noundef i32 @_ZN6duckdb8MinValueIjEET_S1_S1_(i32 noundef %38, i32 noundef %40)
  store i32 %41, ptr %7, align 4, !tbaa !223
  %42 = getelementptr inbounds nuw %"class.duckdb::RleBpDecoder", ptr %8, i32 0, i32 0
  %43 = getelementptr inbounds nuw %"class.duckdb::RleBpDecoder", ptr %8, i32 0, i32 9
  %44 = load i32, ptr %7, align 4, !tbaa !223
  %45 = zext i32 %44 to i64
  %46 = getelementptr inbounds nuw %"class.duckdb::RleBpDecoder", ptr %8, i32 0, i32 1
  %47 = load i32, ptr %46, align 8, !tbaa !347
  %48 = trunc i32 %47 to i8
  call void @_ZN6duckdb18ParquetDecodeUtils4SkipERNS_10ByteBufferERhmh(ptr noundef nonnull align 8 dereferenceable(16) %42, ptr noundef nonnull align 1 dereferenceable(1) %43, i64 noundef %45, i8 noundef zeroext %48)
  %49 = load i32, ptr %7, align 4, !tbaa !223
  %50 = getelementptr inbounds nuw %"class.duckdb::RleBpDecoder", ptr %8, i32 0, i32 5
  %51 = load i32, ptr %50, align 4, !tbaa !346
  %52 = sub i32 %51, %49
  store i32 %52, ptr %50, align 4, !tbaa !346
  %53 = load i32, ptr %7, align 4, !tbaa !223
  %54 = load i32, ptr %5, align 4, !tbaa !223
  %55 = add i32 %54, %53
  store i32 %55, ptr %5, align 4, !tbaa !223
  call void @llvm.lifetime.end.p0(i64 4, ptr %7) #3
  br label %57

56:                                               ; preds = %31
  call void @_ZN6duckdb12RleBpDecoder10NextCountsEv(ptr noundef nonnull align 8 dereferenceable(57) %8)
  br label %57

57:                                               ; preds = %56, %35
  br label %58

58:                                               ; preds = %57, %17
  br label %9, !llvm.loop !349

59:                                               ; preds = %9
  call void @llvm.lifetime.end.p0(i64 4, ptr %5) #3
  ret void
}

; Function Attrs: mustprogress uwtable
define linkonce_odr noundef i64 @_ZNK6duckdb12ColumnReader13GetValidCountEPhmm(ptr noundef nonnull align 8 dereferenceable(544) %0, ptr noundef %1, i64 noundef %2, i64 noundef %3) #6 comdat align 2 {
  %5 = alloca i64, align 8
  %6 = alloca ptr, align 8
  %7 = alloca ptr, align 8
  %8 = alloca i64, align 8
  %9 = alloca i64, align 8
  %10 = alloca i64, align 8
  %11 = alloca i64, align 8
  store ptr %0, ptr %6, align 8, !tbaa !8
  store ptr %1, ptr %7, align 8, !tbaa !35
  store i64 %2, ptr %8, align 8, !tbaa !30
  store i64 %3, ptr %9, align 8, !tbaa !30
  %12 = load ptr, ptr %6, align 8
  %13 = load ptr, ptr %7, align 8, !tbaa !35
  %14 = icmp ne ptr %13, null
  br i1 %14, label %17, label %15

15:                                               ; preds = %4
  %16 = load i64, ptr %8, align 8, !tbaa !30
  store i64 %16, ptr %5, align 8
  br label %42

17:                                               ; preds = %4
  call void @llvm.lifetime.start.p0(i64 8, ptr %10) #3
  store i64 0, ptr %10, align 8, !tbaa !30
  call void @llvm.lifetime.start.p0(i64 8, ptr %11) #3
  %18 = load i64, ptr %9, align 8, !tbaa !30
  store i64 %18, ptr %11, align 8, !tbaa !30
  br label %19

19:                                               ; preds = %37, %17
  %20 = load i64, ptr %11, align 8, !tbaa !30
  %21 = load i64, ptr %9, align 8, !tbaa !30
  %22 = load i64, ptr %8, align 8, !tbaa !30
  %23 = add i64 %21, %22
  %24 = icmp ult i64 %20, %23
  br i1 %24, label %26, label %25

25:                                               ; preds = %19
  call void @llvm.lifetime.end.p0(i64 8, ptr %11) #3
  br label %40

26:                                               ; preds = %19
  %27 = load ptr, ptr %7, align 8, !tbaa !35
  %28 = load i64, ptr %11, align 8, !tbaa !30
  %29 = getelementptr inbounds nuw i8, ptr %27, i64 %28
  %30 = load i8, ptr %29, align 1, !tbaa !218
  %31 = zext i8 %30 to i64
  %32 = call noundef i64 @_ZNK6duckdb12ColumnReader9MaxDefineEv(ptr noundef nonnull align 8 dereferenceable(544) %12)
  %33 = icmp eq i64 %31, %32
  %34 = zext i1 %33 to i64
  %35 = load i64, ptr %10, align 8, !tbaa !30
  %36 = add i64 %35, %34
  store i64 %36, ptr %10, align 8, !tbaa !30
  br label %37

37:                                               ; preds = %26
  %38 = load i64, ptr %11, align 8, !tbaa !30
  %39 = add i64 %38, 1
  store i64 %39, ptr %11, align 8, !tbaa !30
  br label %19, !llvm.loop !219

40:                                               ; preds = %25
  %41 = load i64, ptr %10, align 8, !tbaa !30
  store i64 %41, ptr %5, align 8
  call void @llvm.lifetime.end.p0(i64 8, ptr %10) #3
  br label %42

42:                                               ; preds = %40, %15
  %43 = load i64, ptr %5, align 8
  ret i64 %43
}

; Function Attrs: mustprogress uwtable
define void @_ZN6duckdb10RLEDecoder4SkipEPhm(ptr noundef nonnull align 8 dereferenceable(24) %0, ptr noundef %1, i64 noundef %2) #6 align 2 {
  %4 = alloca ptr, align 8
  %5 = alloca ptr, align 8
  %6 = alloca i64, align 8
  %7 = alloca i64, align 8
  store ptr %0, ptr %4, align 8, !tbaa !368
  store ptr %1, ptr %5, align 8, !tbaa !35
  store i64 %2, ptr %6, align 8, !tbaa !30
  %8 = load ptr, ptr %4, align 8
  call void @llvm.lifetime.start.p0(i64 8, ptr %7) #3
  %9 = getelementptr inbounds nuw %"class.duckdb::RLEDecoder", ptr %8, i32 0, i32 0
  %10 = load ptr, ptr %9, align 8, !tbaa !370
  %11 = load ptr, ptr %5, align 8, !tbaa !35
  %12 = load i64, ptr %6, align 8, !tbaa !30
  %13 = call noundef i64 @_ZNK6duckdb12ColumnReader13GetValidCountEPhmm(ptr noundef nonnull align 8 dereferenceable(544) %10, ptr noundef %11, i64 noundef %12, i64 noundef 0)
  store i64 %13, ptr %7, align 8, !tbaa !30
  %14 = getelementptr inbounds nuw %"class.duckdb::RLEDecoder", ptr %8, i32 0, i32 2
  %15 = call noundef ptr @_ZNK6duckdb10unique_ptrINS_12RleBpDecoderESt14default_deleteIS1_ELb1EEptEv(ptr noundef nonnull align 8 dereferenceable(8) %14)
  %16 = load i64, ptr %7, align 8, !tbaa !30
  %17 = trunc i64 %16 to i32
  call void @_ZN6duckdb12RleBpDecoder4SkipEj(ptr noundef nonnull align 8 dereferenceable(57) %15, i32 noundef %17)
  call void @llvm.lifetime.end.p0(i64 8, ptr %7) #3
  ret void
}