; Function Attrs: mustprogress uwtable
define void @_ZN6duckdb10RLEDecoder4SkipEPhm(ptr noundef nonnull align 8 dereferenceable(24) %0, ptr noundef readonly captures(address_is_null) %1, i64 noundef %2) local_unnamed_addr #4 align 2 {
  %4 = load ptr, ptr %0, align 8, !tbaa !375
  %.not.i = icmp eq ptr %1, null
  br i1 %.not.i, label %_ZNK6duckdb12ColumnReader13GetValidCountEPhmm.exit, label %.preheader.i

.preheader.i:                                     ; preds = %3
  %.not = icmp eq i64 %2, 0
  br i1 %.not, label %_ZNK6duckdb12ColumnReader13GetValidCountEPhmm.exit.thread, label %.lr.ph.i

_ZNK6duckdb12ColumnReader13GetValidCountEPhmm.exit.thread: ; preds = %.preheader.i
  %5 = getelementptr inbounds nuw i8, ptr %0, i64 16
  %6 = tail call noundef ptr @_ZNK6duckdb10unique_ptrINS_12RleBpDecoderESt14default_deleteIS1_ELb1EEptEv(ptr noundef nonnull align 8 dereferenceable(8) %5)
  br label %_ZN6duckdb12RleBpDecoder4SkipEj.exit

.lr.ph.i:                                         ; preds = %.preheader.i
  %7 = getelementptr inbounds nuw i8, ptr %4, i64 8
  %8 = load ptr, ptr %7, align 8, !tbaa !43
  %9 = getelementptr inbounds nuw i8, ptr %8, i64 64
  %10 = load i64, ptr %9, align 8, !tbaa !100
  br label %11

11:                                               ; preds = %11, %.lr.ph.i
  %.016.i = phi i64 [ 0, %.lr.ph.i ], [ %18, %11 ]
  %.01215.i = phi i64 [ 0, %.lr.ph.i ], [ %17, %11 ]
  %12 = getelementptr inbounds nuw i8, ptr %1, i64 %.016.i
  %13 = load i8, ptr %12, align 1, !tbaa !118
  %14 = zext i8 %13 to i64
  %15 = icmp eq i64 %10, %14
  %16 = zext i1 %15 to i64
  %17 = add i64 %.01215.i, %16
  %18 = add nuw i64 %.016.i, 1
  %exitcond.not.i = icmp eq i64 %18, %2
  br i1 %exitcond.not.i, label %_ZNK6duckdb12ColumnReader13GetValidCountEPhmm.exit, label %11, !llvm.loop !119

_ZNK6duckdb12ColumnReader13GetValidCountEPhmm.exit: ; preds = %11, %3
  %.013.i = phi i64 [ %2, %3 ], [ %17, %11 ]
  %19 = getelementptr inbounds nuw i8, ptr %0, i64 16
  %20 = tail call noundef ptr @_ZNK6duckdb10unique_ptrINS_12RleBpDecoderESt14default_deleteIS1_ELb1EEptEv(ptr noundef nonnull align 8 dereferenceable(8) %19)
  %21 = trunc i64 %.013.i to i32
  %.not18.i = icmp eq i32 %21, 0
  br i1 %.not18.i, label %_ZN6duckdb12RleBpDecoder4SkipEj.exit, label %.lr.ph.i3

.lr.ph.i3:                                        ; preds = %_ZNK6duckdb12ColumnReader13GetValidCountEPhmm.exit
  %22 = getelementptr inbounds nuw i8, ptr %20, i64 32
  %23 = getelementptr inbounds nuw i8, ptr %20, i64 36
  %24 = getelementptr inbounds nuw i8, ptr %20, i64 56
  %25 = getelementptr inbounds nuw i8, ptr %20, i64 16
  %26 = getelementptr inbounds nuw i8, ptr %20, i64 40
  %27 = getelementptr inbounds nuw i8, ptr %20, i64 8
  br label %28

28:                                               ; preds = %_ZN6duckdb12RleBpDecoder10NextCountsEv.exit.i, %.lr.ph.i3
  %.017.i = phi i32 [ 0, %.lr.ph.i3 ], [ %.1.i, %_ZN6duckdb12RleBpDecoder10NextCountsEv.exit.i ]
  %29 = load i32, ptr %22, align 8, !tbaa !354
  %.not.i4 = icmp eq i32 %29, 0
  br i1 %.not.i4, label %35, label %30

30:                                               ; preds = %28
  %31 = sub i32 %21, %.017.i
  %32 = tail call noundef i32 @llvm.umin.i32(i32 %31, i32 %29)
  %33 = sub i32 %29, %32
  store i32 %33, ptr %22, align 8, !tbaa !354
  %34 = add i32 %32, %.017.i
  br label %_ZN6duckdb12RleBpDecoder10NextCountsEv.exit.i

35:                                               ; preds = %28
  %36 = load i32, ptr %23, align 4, !tbaa !357
  %.not16.i = icmp eq i32 %36, 0
  br i1 %.not16.i, label %46, label %37

37:                                               ; preds = %35
  %38 = sub i32 %21, %.017.i
  %39 = tail call noundef i32 @llvm.umin.i32(i32 %38, i32 %36)
  %40 = zext i32 %39 to i64
  %41 = load i32, ptr %25, align 8, !tbaa !347
  %42 = trunc i32 %41 to i8
  tail call void @_ZN6duckdb18ParquetDecodeUtils4SkipERNS_10ByteBufferERhmh(ptr noundef nonnull align 8 dereferenceable(57) %20, ptr noundef nonnull align 1 dereferenceable(1) %24, i64 noundef %40, i8 noundef zeroext %42)
  %43 = load i32, ptr %23, align 4, !tbaa !357
  %44 = sub i32 %43, %39
  store i32 %44, ptr %23, align 4, !tbaa !357
  %45 = add i32 %39, %.017.i
  br label %_ZN6duckdb12RleBpDecoder10NextCountsEv.exit.i

46:                                               ; preds = %35
  %47 = load i8, ptr %26, align 8, !tbaa !350
  %48 = zext i8 %47 to i64
  %49 = add nuw nsw i64 %48, 6
  %50 = load i64, ptr %27, align 8, !tbaa !21
  %.not.i.i = icmp ugt i64 %49, %50
  br i1 %.not.i.i, label %52, label %51

51:                                               ; preds = %46
  tail call void @_ZN6duckdb12RleBpDecoder19NextCountsTemplatedILb0EEEvv(ptr noundef nonnull align 8 dereferenceable(57) %20)
  br label %_ZN6duckdb12RleBpDecoder10NextCountsEv.exit.i

52:                                               ; preds = %46
  tail call void @_ZN6duckdb12RleBpDecoder19NextCountsTemplatedILb1EEEvv(ptr noundef nonnull align 8 dereferenceable(57) %20)
  br label %_ZN6duckdb12RleBpDecoder10NextCountsEv.exit.i

_ZN6duckdb12RleBpDecoder10NextCountsEv.exit.i:    ; preds = %52, %51, %37, %30
  %.1.i = phi i32 [ %34, %30 ], [ %45, %37 ], [ %.017.i, %51 ], [ %.017.i, %52 ]
  %53 = icmp ult i32 %.1.i, %21
  br i1 %53, label %28, label %_ZN6duckdb12RleBpDecoder4SkipEj.exit, !llvm.loop !364

_ZN6duckdb12RleBpDecoder4SkipEj.exit:             ; preds = %_ZN6duckdb12RleBpDecoder10NextCountsEv.exit.i, %_ZNK6duckdb12ColumnReader13GetValidCountEPhmm.exit.thread, %_ZNK6duckdb12ColumnReader13GetValidCountEPhmm.exit
  ret void
}